target datalayout = "e-m:e-p270:32:32-p271:32:32-p272:64:64-i64:64-i128:128-f80:128-n8:16:32:64-S128"
target triple = "x86_64-pc-linux-gnu"

%struct.iovec = type { ptr, i64 }

; Function Attrs: nounwind uwtable
define i32 @compute_remaining_iovec(ptr noundef %0, ptr noundef %1, i32 noundef %2, i64 noundef %3) #0 {
  %5 = alloca i32, align 4
  %6 = alloca ptr, align 8
  %7 = alloca ptr, align 8
  %8 = alloca i32, align 4
  %9 = alloca i64, align 8
  store ptr %0, ptr %6, align 8
  store ptr %1, ptr %7, align 8
  store i32 %2, ptr %8, align 4
  store i64 %3, ptr %9, align 8
  br label %10

10:                                               ; preds = %29, %4
  %11 = load ptr, ptr %7, align 8
  %12 = getelementptr inbounds nuw %struct.iovec, ptr %11, i32 0, i32 1
  %13 = load i64, ptr %12, align 8
  %14 = load i64, ptr %9, align 8
  %15 = icmp ule i64 %13, %14
  br i1 %15, label %16, label %30

16:                                               ; preds = %10
  %17 = load ptr, ptr %7, align 8
  %18 = getelementptr inbounds nuw %struct.iovec, ptr %17, i32 0, i32 1
  %19 = load i64, ptr %18, align 8
  %20 = load i64, ptr %9, align 8
  %21 = sub i64 %20, %19
  store i64 %21, ptr %9, align 8
  %22 = load ptr, ptr %7, align 8
  %23 = getelementptr inbounds nuw %struct.iovec, ptr %22, i32 1
  store ptr %23, ptr %7, align 8
  %24 = load i32, ptr %8, align 4
  %25 = add i32 %24, -1
  store i32 %25, ptr %8, align 4
  %26 = load i32, ptr %8, align 4
  %27 = icmp eq i32 %26, 0
  br i1 %27, label %28, label %29

28:                                               ; preds = %16
  store i32 0, ptr %5, align 4
  br label %54

29:                                               ; preds = %16
  br label %10, !llvm.loop !8

30:                                               ; preds = %10
  %31 = load ptr, ptr %7, align 8
  %32 = load ptr, ptr %6, align 8
  %33 = icmp ne ptr %31, %32
  br i1 %33, label %34, label %40

34:                                               ; preds = %30
  %35 = load ptr, ptr %6, align 8
  %36 = load ptr, ptr %7, align 8
  %37 = load i32, ptr %8, align 4
  %38 = sext i32 %37 to i64
  %39 = mul i64 16, %38
  call void @llvm.memmove.p0.p0.i64(ptr align 8 %35, ptr align 8 %36, i64 %39, i1 false)
  br label %40

40:                                               ; preds = %34, %30
  %41 = load ptr, ptr %6, align 8
  %42 = getelementptr inbounds nuw %struct.iovec, ptr %41, i32 0, i32 0
  %43 = load ptr, ptr %42, align 8
  %44 = load i64, ptr %9, align 8
  %45 = getelementptr inbounds nuw i8, ptr %43, i64 %44
  %46 = load ptr, ptr %6, align 8
  %47 = getelementptr inbounds nuw %struct.iovec, ptr %46, i32 0, i32 0
  store ptr %45, ptr %47, align 8
  %48 = load i64, ptr %9, align 8
  %49 = load ptr, ptr %6, align 8
  %50 = getelementptr inbounds nuw %struct.iovec, ptr %49, i32 0, i32 1
  %51 = load i64, ptr %50, align 8
  %52 = sub i64 %51, %48
  store i64 %52, ptr %50, align 8
  %53 = load i32, ptr %8, align 4
  store i32 %53, ptr %5, align 4
  br label %54

54:                                               ; preds = %40, %28
  %55 = load i32, ptr %5, align 4
  ret i32 %55
}

; Function Attrs: inlinehint nounwind uwtable
define internal i64 @pg_pwritev(i32 noundef %0, ptr noundef %1, i32 noundef %2, i64 noundef %3) #8 {
  %5 = alloca i64, align 8
  %6 = alloca i32, align 4
  %7 = alloca ptr, align 8
  %8 = alloca i32, align 4
  %9 = alloca i64, align 8
  store i32 %0, ptr %6, align 4
  store ptr %1, ptr %7, align 8
  store i32 %2, ptr %8, align 4
  store i64 %3, ptr %9, align 8
  %10 = load i32, ptr %8, align 4
  %11 = icmp eq i32 %10, 1
  br i1 %11, label %12, label %24

12:                                               ; preds = %4
  %13 = load i32, ptr %6, align 4
  %14 = load ptr, ptr %7, align 8
  %15 = getelementptr inbounds %struct.iovec, ptr %14, i64 0
  %16 = getelementptr inbounds nuw %struct.iovec, ptr %15, i32 0, i32 0
  %17 = load ptr, ptr %16, align 8
  %18 = load ptr, ptr %7, align 8
  %19 = getelementptr inbounds %struct.iovec, ptr %18, i64 0
  %20 = getelementptr inbounds nuw %struct.iovec, ptr %19, i32 0, i32 1
  %21 = load i64, ptr %20, align 8
  %22 = load i64, ptr %9, align 8
  %23 = call i64 @pwrite(i32 noundef %13, ptr noundef %17, i64 noundef %21, i64 noundef %22)
  store i64 %23, ptr %5, align 8
  br label %30

24:                                               ; preds = %4
  %25 = load i32, ptr %6, align 4
  %26 = load ptr, ptr %7, align 8
  %27 = load i32, ptr %8, align 4
  %28 = load i64, ptr %9, align 8
  %29 = call i64 @pwritev(i32 noundef %25, ptr noundef %26, i32 noundef %27, i64 noundef %28)
  store i64 %29, ptr %5, align 8
  br label %30

30:                                               ; preds = %24, %12
  %31 = load i64, ptr %5, align 8
  ret i64 %31
}

; Function Attrs: nounwind uwtable
define i64 @pg_pwritev_with_retry(i32 noundef %0, ptr noundef %1, i32 noundef %2, i64 noundef %3) #0 {
  %5 = alloca i64, align 8
  %6 = alloca i32, align 4
  %7 = alloca ptr, align 8
  %8 = alloca i32, align 4
  %9 = alloca i64, align 8
  %10 = alloca [32 x %struct.iovec], align 16
  %11 = alloca i64, align 8
  %12 = alloca i64, align 8
  %13 = alloca i32, align 4
  store i32 %0, ptr %6, align 4
  store ptr %1, ptr %7, align 8
  store i32 %2, ptr %8, align 4
  store i64 %3, ptr %9, align 8
  call void @llvm.lifetime.start.p0(i64 512, ptr %10) #9
  call void @llvm.lifetime.start.p0(i64 8, ptr %11) #9
  store i64 0, ptr %11, align 8
  call void @llvm.lifetime.start.p0(i64 8, ptr %12) #9
  %14 = load i32, ptr %8, align 4
  %15 = icmp sgt i32 %14, 32
  br i1 %15, label %16, label %18

16:                                               ; preds = %4
  %17 = call ptr @__errno_location() #10
  store i32 22, ptr %17, align 4
  store i64 -1, ptr %5, align 8
  store i32 1, ptr %13, align 4
  br label %46

18:                                               ; preds = %4
  br label %19

19:                                               ; preds = %41, %18
  %20 = load i32, ptr %6, align 4
  %21 = load ptr, ptr %7, align 8
  %22 = load i32, ptr %8, align 4
  %23 = load i64, ptr %9, align 8
  %24 = call i64 @pg_pwritev(i32 noundef %20, ptr noundef %21, i32 noundef %22, i64 noundef %23)
  store i64 %24, ptr %12, align 8
  %25 = load i64, ptr %12, align 8
  %26 = icmp slt i64 %25, 0
  br i1 %26, label %27, label %28

27:                                               ; preds = %19
  store i64 -1, ptr %5, align 8
  store i32 1, ptr %13, align 4
  br label %46

28:                                               ; preds = %19
  %29 = load i64, ptr %12, align 8
  %30 = load i64, ptr %11, align 8
  %31 = add i64 %30, %29
  store i64 %31, ptr %11, align 8
  %32 = load i64, ptr %12, align 8
  %33 = load i64, ptr %9, align 8
  %34 = add i64 %33, %32
  store i64 %34, ptr %9, align 8
  %35 = getelementptr inbounds [32 x %struct.iovec], ptr %10, i64 0, i64 0
  %36 = load ptr, ptr %7, align 8
  %37 = load i32, ptr %8, align 4
  %38 = load i64, ptr %12, align 8
  %39 = call i32 @compute_remaining_iovec(ptr noundef %35, ptr noundef %36, i32 noundef %37, i64 noundef %38)
  store i32 %39, ptr %8, align 4
  %40 = getelementptr inbounds [32 x %struct.iovec], ptr %10, i64 0, i64 0
  store ptr %40, ptr %7, align 8
  br label %41

41:                                               ; preds = %28
  %42 = load i32, ptr %8, align 4
  %43 = icmp sgt i32 %42, 0
  br i1 %43, label %19, label %44, !llvm.loop !9

44:                                               ; preds = %41
  %45 = load i64, ptr %11, align 8
  store i64 %45, ptr %5, align 8
  store i32 1, ptr %13, align 4
  br label %46

46:                                               ; preds = %44, %27, %16
  call void @llvm.lifetime.end.p0(i64 8, ptr %12) #9
  call void @llvm.lifetime.end.p0(i64 8, ptr %11) #9
  call void @llvm.lifetime.end.p0(i64 512, ptr %10) #9
  %47 = load i64, ptr %5, align 8
  ret i64 %47
}