; Function Attrs: nounwind uwtable
define i64 @pg_pwritev_with_retry(i32 noundef %0, ptr noundef %1, i32 noundef %2, i64 noundef %3) local_unnamed_addr #0 {
  %5 = alloca [32 x %struct.iovec], align 16
  call void @llvm.lifetime.start.p0(i64 512, ptr nonnull %5) #11
  %6 = icmp sgt i32 %2, 32
  %.018.sroa.gep23 = getelementptr inbounds nuw i8, ptr %5, i64 8
  br i1 %6, label %7, label %.preheader.preheader

.preheader.preheader:                             ; preds = %4
  %.018.sroa.gep = getelementptr inbounds nuw i8, ptr %1, i64 8
  br label %.preheader

7:                                                ; preds = %4
  %8 = tail call ptr @__errno_location() #12
  store i32 22, ptr %8, align 4
  br label %compute_remaining_iovec.exit.thread

.preheader:                                       ; preds = %.preheader.preheader, %compute_remaining_iovec.exit
  %.018.sroa.phi = phi ptr [ %.018.sroa.gep23, %compute_remaining_iovec.exit ], [ %.018.sroa.gep, %.preheader.preheader ]
  %.018 = phi ptr [ %5, %compute_remaining_iovec.exit ], [ %1, %.preheader.preheader ]
  %.017 = phi i32 [ %.018.i, %compute_remaining_iovec.exit ], [ %2, %.preheader.preheader ]
  %.016 = phi i64 [ %19, %compute_remaining_iovec.exit ], [ %3, %.preheader.preheader ]
  %.015 = phi i64 [ %18, %compute_remaining_iovec.exit ], [ 0, %.preheader.preheader ]
  %9 = icmp eq i32 %.017, 1
  br i1 %9, label %10, label %14

10:                                               ; preds = %.preheader
  %11 = load ptr, ptr %.018, align 8
  %12 = load i64, ptr %.018.sroa.phi, align 8
  %13 = call i64 @pwrite(i32 noundef %0, ptr noundef %11, i64 noundef %12, i64 noundef %.016) #11
  br label %pg_pwritev.exit

14:                                               ; preds = %.preheader
  %15 = call i64 @pwritev(i32 noundef %0, ptr noundef %.018, i32 noundef %.017, i64 noundef %.016) #11
  br label %pg_pwritev.exit

pg_pwritev.exit:                                  ; preds = %10, %14
  %.0.i = phi i64 [ %13, %10 ], [ %15, %14 ]
  %16 = icmp slt i64 %.0.i, 0
  br i1 %16, label %compute_remaining_iovec.exit.thread, label %17

17:                                               ; preds = %pg_pwritev.exit
  %18 = add i64 %.0.i, %.015
  %19 = add i64 %.0.i, %.016
  br label %20

20:                                               ; preds = %23, %17
  %.019.i = phi ptr [ %.018, %17 ], [ %25, %23 ]
  %.018.i = phi i32 [ %.017, %17 ], [ %26, %23 ]
  %.0.i22 = phi i64 [ %.0.i, %17 ], [ %24, %23 ]
  %21 = getelementptr inbounds nuw i8, ptr %.019.i, i64 8
  %22 = load i64, ptr %21, align 8
  %.not.i = icmp ugt i64 %22, %.0.i22
  br i1 %.not.i, label %28, label %23

23:                                               ; preds = %20
  %24 = sub nuw i64 %.0.i22, %22
  %25 = getelementptr inbounds nuw i8, ptr %.019.i, i64 16
  %26 = add i32 %.018.i, -1
  %27 = icmp eq i32 %26, 0
  br i1 %27, label %compute_remaining_iovec.exit.thread, label %20, !llvm.loop !7

28:                                               ; preds = %20
  %.not24.i = icmp eq ptr %.019.i, %5
  br i1 %.not24.i, label %compute_remaining_iovec.exit, label %29

29:                                               ; preds = %28
  %30 = sext i32 %.018.i to i64
  %31 = shl nsw i64 %30, 4
  call void @llvm.memmove.p0.p0.i64(ptr nonnull align 16 %5, ptr nonnull align 8 %.019.i, i64 %31, i1 false)
  br label %compute_remaining_iovec.exit

compute_remaining_iovec.exit:                     ; preds = %28, %29
  %32 = load ptr, ptr %5, align 16
  %33 = getelementptr inbounds nuw i8, ptr %32, i64 %.0.i22
  store ptr %33, ptr %5, align 16
  %34 = load i64, ptr %.018.sroa.gep23, align 8
  %35 = sub i64 %34, %.0.i22
  store i64 %35, ptr %.018.sroa.gep23, align 8
  %36 = icmp sgt i32 %.018.i, 0
  br i1 %36, label %.preheader, label %compute_remaining_iovec.exit.thread, !llvm.loop !8

compute_remaining_iovec.exit.thread:              ; preds = %compute_remaining_iovec.exit, %pg_pwritev.exit, %23, %7
  %.0 = phi i64 [ -1, %7 ], [ %18, %23 ], [ %18, %compute_remaining_iovec.exit ], [ -1, %pg_pwritev.exit ]
  call void @llvm.lifetime.end.p0(i64 512, ptr nonnull %5) #11
  ret i64 %.0
}